target datalayout = "e-m:e-p270:32:32-p271:32:32-p272:64:64-i64:64-i128:128-f80:128-n8:16:32:64-S128"
target triple = "x86_64-pc-linux-gnu"

%struct.sharedObjectsStruct = type { ptr, ptr, ptr, ptr, ptr, ptr, ptr, ptr, [4 x ptr], [4 x ptr], [4 x ptr], [4 x ptr], ptr, ptr, ptr, ptr, ptr, ptr, ptr, ptr, ptr, ptr, ptr, ptr, ptr, ptr, ptr, ptr, ptr, ptr, ptr, ptr, ptr, ptr, ptr, ptr, ptr, ptr, ptr, ptr, ptr, ptr, ptr, ptr, ptr, ptr, ptr, ptr, ptr, ptr, ptr, ptr, ptr, ptr, ptr, ptr, ptr, ptr, ptr, ptr, ptr, ptr, ptr, ptr, ptr, ptr, ptr, ptr, ptr, ptr, ptr, ptr, ptr, ptr, ptr, ptr, ptr, ptr, ptr, ptr, ptr, ptr, ptr, ptr, ptr, ptr, ptr, ptr, [10 x ptr], [10000 x ptr], [32 x ptr], [32 x ptr], [32 x ptr], [32 x ptr], ptr, ptr }
%struct.client = type { i64, i64, ptr, i8, i8, i8, i8, i32, ptr, ptr, ptr, ptr, ptr, i64, i64, i32, ptr, i32, i32, ptr, i64, ptr, ptr, ptr, ptr, ptr, i32, i32, i64, ptr, i64, ptr, i64, i64, i64, i32, ptr, i64, i64, i32, i32, i32, i32, i64, i64, ptr, i64, i64, i64, i64, i64, i64, i64, i64, [41 x i8], i32, ptr, i32, i32, i64, %struct.multiState, %struct.blockingState, i64, ptr, ptr, ptr, ptr, ptr, ptr, ptr, ptr, ptr, ptr, ptr, ptr, ptr, ptr, i64, ptr, i64, i32, ptr, ptr, ptr, i64, %struct.listNode, i64, i64, i32, i64, ptr }
%struct.multiState = type { ptr, i32, i32, i32, i64, i32 }
%struct.blockingState = type { i32, i64, i32, ptr, i32, i32, i64, ptr, ptr, i64 }
%struct.listNode = type { ptr, ptr, ptr }
%struct.redisObject = type { i32, i32, ptr }

@shared = external global %struct.sharedObjectsStruct, align 8

; Function Attrs: nounwind uwtable
define dso_local void @getrangeCommand(ptr noundef %0) #0 {
  %2 = alloca ptr, align 8
  %3 = alloca ptr, align 8
  %4 = alloca i64, align 8
  %5 = alloca i64, align 8
  %6 = alloca ptr, align 8
  %7 = alloca [32 x i8], align 16
  %8 = alloca i64, align 8
  %9 = alloca i32, align 4
  store ptr %0, ptr %2, align 8, !tbaa !5
  call void @llvm.lifetime.start.p0(i64 8, ptr %3) #10
  call void @llvm.lifetime.start.p0(i64 8, ptr %4) #10
  call void @llvm.lifetime.start.p0(i64 8, ptr %5) #10
  call void @llvm.lifetime.start.p0(i64 8, ptr %6) #10
  call void @llvm.lifetime.start.p0(i64 32, ptr %7) #10
  call void @llvm.lifetime.start.p0(i64 8, ptr %8) #10
  %10 = load ptr, ptr %2, align 8, !tbaa !5
  %11 = load ptr, ptr %2, align 8, !tbaa !5
  %12 = getelementptr inbounds nuw %struct.client, ptr %11, i32 0, i32 16
  %13 = load ptr, ptr %12, align 8, !tbaa !63
  %14 = getelementptr inbounds ptr, ptr %13, i64 2
  %15 = load ptr, ptr %14, align 8, !tbaa !12
  %16 = call i32 @getLongLongFromObjectOrReply(ptr noundef %10, ptr noundef %15, ptr noundef %4, ptr noundef null)
  %17 = icmp ne i32 %16, 0
  br i1 %17, label %18, label %19

18:                                               ; preds = %1
  store i32 1, ptr %9, align 4
  br label %128

19:                                               ; preds = %1
  %20 = load ptr, ptr %2, align 8, !tbaa !5
  %21 = load ptr, ptr %2, align 8, !tbaa !5
  %22 = getelementptr inbounds nuw %struct.client, ptr %21, i32 0, i32 16
  %23 = load ptr, ptr %22, align 8, !tbaa !63
  %24 = getelementptr inbounds ptr, ptr %23, i64 3
  %25 = load ptr, ptr %24, align 8, !tbaa !12
  %26 = call i32 @getLongLongFromObjectOrReply(ptr noundef %20, ptr noundef %25, ptr noundef %5, ptr noundef null)
  %27 = icmp ne i32 %26, 0
  br i1 %27, label %28, label %29

28:                                               ; preds = %19
  store i32 1, ptr %9, align 4
  br label %128

29:                                               ; preds = %19
  %30 = load ptr, ptr %2, align 8, !tbaa !5
  %31 = load ptr, ptr %2, align 8, !tbaa !5
  %32 = getelementptr inbounds nuw %struct.client, ptr %31, i32 0, i32 16
  %33 = load ptr, ptr %32, align 8, !tbaa !63
  %34 = getelementptr inbounds ptr, ptr %33, i64 1
  %35 = load ptr, ptr %34, align 8, !tbaa !12
  %36 = load ptr, ptr getelementptr inbounds nuw (%struct.sharedObjectsStruct, ptr @shared, i32 0, i32 2), align 8, !tbaa !87
  %37 = call ptr @lookupKeyReadOrReply(ptr noundef %30, ptr noundef %35, ptr noundef %36)
  store ptr %37, ptr %3, align 8, !tbaa !12
  %38 = icmp eq ptr %37, null
  br i1 %38, label %44, label %39

39:                                               ; preds = %29
  %40 = load ptr, ptr %2, align 8, !tbaa !5
  %41 = load ptr, ptr %3, align 8, !tbaa !12
  %42 = call i32 @checkType(ptr noundef %40, ptr noundef %41, i32 noundef 0)
  %43 = icmp ne i32 %42, 0
  br i1 %43, label %44, label %45

44:                                               ; preds = %39, %29
  store i32 1, ptr %9, align 4
  br label %128

45:                                               ; preds = %39
  %46 = load ptr, ptr %3, align 8, !tbaa !12
  %47 = load i32, ptr %46, align 8
  %48 = lshr i32 %47, 4
  %49 = and i32 %48, 15
  %50 = icmp eq i32 %49, 1
  br i1 %50, label %51, label %60

51:                                               ; preds = %45
  %52 = getelementptr inbounds [32 x i8], ptr %7, i64 0, i64 0
  store ptr %52, ptr %6, align 8, !tbaa !66
  %53 = getelementptr inbounds [32 x i8], ptr %7, i64 0, i64 0
  %54 = load ptr, ptr %3, align 8, !tbaa !12
  %55 = getelementptr inbounds nuw %struct.redisObject, ptr %54, i32 0, i32 2
  %56 = load ptr, ptr %55, align 8, !tbaa !64
  %57 = ptrtoint ptr %56 to i64
  %58 = call i32 @ll2string(ptr noundef %53, i64 noundef 32, i64 noundef %57)
  %59 = sext i32 %58 to i64
  store i64 %59, ptr %8, align 8, !tbaa !83
  br label %66

60:                                               ; preds = %45
  %61 = load ptr, ptr %3, align 8, !tbaa !12
  %62 = getelementptr inbounds nuw %struct.redisObject, ptr %61, i32 0, i32 2
  %63 = load ptr, ptr %62, align 8, !tbaa !64
  store ptr %63, ptr %6, align 8, !tbaa !66
  %64 = load ptr, ptr %6, align 8, !tbaa !66
  %65 = call i64 @sdslen(ptr noundef %64)
  store i64 %65, ptr %8, align 8, !tbaa !83
  br label %66

66:                                               ; preds = %60, %51
  %67 = load i64, ptr %4, align 8, !tbaa !14
  %68 = icmp slt i64 %67, 0
  br i1 %68, label %69, label %79

69:                                               ; preds = %66
  %70 = load i64, ptr %5, align 8, !tbaa !14
  %71 = icmp slt i64 %70, 0
  br i1 %71, label %72, label %79

72:                                               ; preds = %69
  %73 = load i64, ptr %4, align 8, !tbaa !14
  %74 = load i64, ptr %5, align 8, !tbaa !14
  %75 = icmp sgt i64 %73, %74
  br i1 %75, label %76, label %79

76:                                               ; preds = %72
  %77 = load ptr, ptr %2, align 8, !tbaa !5
  %78 = load ptr, ptr getelementptr inbounds nuw (%struct.sharedObjectsStruct, ptr @shared, i32 0, i32 2), align 8, !tbaa !87
  call void @addReply(ptr noundef %77, ptr noundef %78)
  store i32 1, ptr %9, align 4
  br label %128

79:                                               ; preds = %72, %69, %66
  %80 = load i64, ptr %4, align 8, !tbaa !14
  %81 = icmp slt i64 %80, 0
  br i1 %81, label %82, label %86

82:                                               ; preds = %79
  %83 = load i64, ptr %8, align 8, !tbaa !83
  %84 = load i64, ptr %4, align 8, !tbaa !14
  %85 = add i64 %83, %84
  store i64 %85, ptr %4, align 8, !tbaa !14
  br label %86

86:                                               ; preds = %82, %79
  %87 = load i64, ptr %5, align 8, !tbaa !14
  %88 = icmp slt i64 %87, 0
  br i1 %88, label %89, label %93

89:                                               ; preds = %86
  %90 = load i64, ptr %8, align 8, !tbaa !83
  %91 = load i64, ptr %5, align 8, !tbaa !14
  %92 = add i64 %90, %91
  store i64 %92, ptr %5, align 8, !tbaa !14
  br label %93

93:                                               ; preds = %89, %86
  %94 = load i64, ptr %4, align 8, !tbaa !14
  %95 = icmp slt i64 %94, 0
  br i1 %95, label %96, label %97

96:                                               ; preds = %93
  store i64 0, ptr %4, align 8, !tbaa !14
  br label %97

97:                                               ; preds = %96, %93
  %98 = load i64, ptr %5, align 8, !tbaa !14
  %99 = icmp slt i64 %98, 0
  br i1 %99, label %100, label %101

100:                                              ; preds = %97
  store i64 0, ptr %5, align 8, !tbaa !14
  br label %101

101:                                              ; preds = %100, %97
  %102 = load i64, ptr %5, align 8, !tbaa !14
  %103 = load i64, ptr %8, align 8, !tbaa !83
  %104 = icmp uge i64 %102, %103
  br i1 %104, label %105, label %108

105:                                              ; preds = %101
  %106 = load i64, ptr %8, align 8, !tbaa !83
  %107 = sub i64 %106, 1
  store i64 %107, ptr %5, align 8, !tbaa !14
  br label %108

108:                                              ; preds = %105, %101
  %109 = load i64, ptr %4, align 8, !tbaa !14
  %110 = load i64, ptr %5, align 8, !tbaa !14
  %111 = icmp sgt i64 %109, %110
  br i1 %111, label %115, label %112

112:                                              ; preds = %108
  %113 = load i64, ptr %8, align 8, !tbaa !83
  %114 = icmp eq i64 %113, 0
  br i1 %114, label %115, label %118

115:                                              ; preds = %112, %108
  %116 = load ptr, ptr %2, align 8, !tbaa !5
  %117 = load ptr, ptr getelementptr inbounds nuw (%struct.sharedObjectsStruct, ptr @shared, i32 0, i32 2), align 8, !tbaa !87
  call void @addReply(ptr noundef %116, ptr noundef %117)
  br label %127

118:                                              ; preds = %112
  %119 = load ptr, ptr %2, align 8, !tbaa !5
  %120 = load ptr, ptr %6, align 8, !tbaa !66
  %121 = load i64, ptr %4, align 8, !tbaa !14
  %122 = getelementptr inbounds i8, ptr %120, i64 %121
  %123 = load i64, ptr %5, align 8, !tbaa !14
  %124 = load i64, ptr %4, align 8, !tbaa !14
  %125 = sub nsw i64 %123, %124
  %126 = add nsw i64 %125, 1
  call void @addReplyBulkCBuffer(ptr noundef %119, ptr noundef %122, i64 noundef %126)
  br label %127

127:                                              ; preds = %118, %115
  store i32 0, ptr %9, align 4
  br label %128

128:                                              ; preds = %127, %76, %44, %28, %18
  call void @llvm.lifetime.end.p0(i64 8, ptr %8) #10
  call void @llvm.lifetime.end.p0(i64 32, ptr %7) #10
  call void @llvm.lifetime.end.p0(i64 8, ptr %6) #10
  call void @llvm.lifetime.end.p0(i64 8, ptr %5) #10
  call void @llvm.lifetime.end.p0(i64 8, ptr %4) #10
  call void @llvm.lifetime.end.p0(i64 8, ptr %3) #10
  %129 = load i32, ptr %9, align 4
  switch i32 %129, label %131 [
    i32 0, label %130
    i32 1, label %130
  ]

130:                                              ; preds = %128, %128
  ret void

131:                                              ; preds = %128
  unreachable
}