; Function Attrs: nounwind uwtable
define dso_local void @getrangeCommand(ptr noundef %0) local_unnamed_addr #0 {
  %2 = alloca i64, align 8
  %3 = alloca i64, align 8
  %4 = alloca [32 x i8], align 16
  call void @llvm.lifetime.start.p0(i64 8, ptr nonnull %2) #11
  call void @llvm.lifetime.start.p0(i64 8, ptr nonnull %3) #11
  call void @llvm.lifetime.start.p0(i64 32, ptr nonnull %4) #11
  %5 = getelementptr inbounds nuw i8, ptr %0, i64 96
  %6 = load ptr, ptr %5, align 8, !tbaa !9
  %7 = getelementptr inbounds nuw i8, ptr %6, i64 16
  %8 = load ptr, ptr %7, align 8, !tbaa !29
  %9 = call i32 @getLongLongFromObjectOrReply(ptr noundef %0, ptr noundef %8, ptr noundef nonnull %2, ptr noundef null) #11
  %.not = icmp eq i32 %9, 0
  br i1 %.not, label %10, label %72

10:                                               ; preds = %1
  %11 = load ptr, ptr %5, align 8, !tbaa !9
  %12 = getelementptr inbounds nuw i8, ptr %11, i64 24
  %13 = load ptr, ptr %12, align 8, !tbaa !29
  %14 = call i32 @getLongLongFromObjectOrReply(ptr noundef nonnull %0, ptr noundef %13, ptr noundef nonnull %3, ptr noundef null) #11
  %.not31 = icmp eq i32 %14, 0
  br i1 %.not31, label %15, label %72

15:                                               ; preds = %10
  %16 = load ptr, ptr %5, align 8, !tbaa !9
  %17 = getelementptr inbounds nuw i8, ptr %16, i64 8
  %18 = load ptr, ptr %17, align 8, !tbaa !29
  %19 = load ptr, ptr getelementptr inbounds nuw (i8, ptr @shared, i64 16), align 8, !tbaa !79
  %20 = call ptr @lookupKeyReadOrReply(ptr noundef nonnull %0, ptr noundef %18, ptr noundef %19) #11
  %21 = icmp eq ptr %20, null
  br i1 %21, label %72, label %22

22:                                               ; preds = %15
  %23 = call i32 @checkType(ptr noundef nonnull %0, ptr noundef nonnull %20, i32 noundef 0) #11
  %.not32 = icmp eq i32 %23, 0
  br i1 %.not32, label %24, label %72

24:                                               ; preds = %22
  %25 = load i32, ptr %20, align 8
  %26 = and i32 %25, 240
  %27 = icmp eq i32 %26, 16
  %28 = getelementptr inbounds nuw i8, ptr %20, i64 8
  %29 = load ptr, ptr %28, align 8, !tbaa !60
  br i1 %27, label %30, label %34

30:                                               ; preds = %24
  %31 = ptrtoint ptr %29 to i64
  %32 = call i32 @ll2string(ptr noundef nonnull %4, i64 noundef 32, i64 noundef %31) #11
  %33 = sext i32 %32 to i64
  br label %36

34:                                               ; preds = %24
  %35 = call fastcc i64 @sdslen(ptr noundef %29)
  br label %36

36:                                               ; preds = %34, %30
  %.023 = phi ptr [ %4, %30 ], [ %29, %34 ]
  %.0 = phi i64 [ %33, %30 ], [ %35, %34 ]
  %37 = load i64, ptr %2, align 8, !tbaa !5
  %38 = icmp slt i64 %37, 0
  %39 = load i64, ptr %3, align 8
  %40 = icmp slt i64 %39, 0
  %41 = icmp sgt i64 %37, %39
  %42 = and i1 %40, %41
  %or.cond34 = select i1 %38, i1 %42, i1 false
  br i1 %or.cond34, label %43, label %45

43:                                               ; preds = %36
  %44 = load ptr, ptr getelementptr inbounds nuw (i8, ptr @shared, i64 16), align 8, !tbaa !79
  call void @addReply(ptr noundef nonnull %0, ptr noundef %44) #11
  br label %72

45:                                               ; preds = %36
  br i1 %38, label %46, label %48

46:                                               ; preds = %45
  %47 = add i64 %37, %.0
  store i64 %47, ptr %2, align 8, !tbaa !5
  br label %48

48:                                               ; preds = %46, %45
  %49 = phi i64 [ %47, %46 ], [ %37, %45 ]
  br i1 %40, label %50, label %52

50:                                               ; preds = %48
  %51 = add i64 %39, %.0
  store i64 %51, ptr %3, align 8, !tbaa !5
  br label %52

52:                                               ; preds = %50, %48
  %53 = phi i64 [ %51, %50 ], [ %39, %48 ]
  %54 = icmp slt i64 %49, 0
  br i1 %54, label %55, label %56

55:                                               ; preds = %52
  store i64 0, ptr %2, align 8, !tbaa !5
  br label %56

56:                                               ; preds = %55, %52
  %57 = phi i64 [ 0, %55 ], [ %49, %52 ]
  %58 = icmp slt i64 %53, 0
  %59 = call i64 @llvm.smax.i64(i64 %53, i64 0)
  %.not33 = icmp uge i64 %59, %.0
  %60 = add nsw i64 %.0, -1
  %61 = select i1 %.not33, i64 %60, i64 %59
  %62 = or i1 %58, %.not33
  br i1 %62, label %63, label %64

63:                                               ; preds = %56
  store i64 %61, ptr %3, align 8, !tbaa !5
  br label %64

64:                                               ; preds = %56, %63
  %65 = icmp sgt i64 %57, %61
  %66 = icmp eq i64 %.0, 0
  %or.cond3 = select i1 %65, i1 true, i1 %66
  br i1 %or.cond3, label %67, label %69

67:                                               ; preds = %64
  %68 = load ptr, ptr getelementptr inbounds nuw (i8, ptr @shared, i64 16), align 8, !tbaa !79
  call void @addReply(ptr noundef nonnull %0, ptr noundef %68) #11
  br label %72

69:                                               ; preds = %64
  %70 = getelementptr inbounds nuw i8, ptr %.023, i64 %57
  %reass.sub = sub nsw i64 %61, %57
  %71 = add i64 %reass.sub, 1
  call void @addReplyBulkCBuffer(ptr noundef nonnull %0, ptr noundef %70, i64 noundef %71) #11
  br label %72

72:                                               ; preds = %67, %69, %15, %22, %10, %1, %43
  call void @llvm.lifetime.end.p0(i64 32, ptr nonnull %4) #11
  call void @llvm.lifetime.end.p0(i64 8, ptr nonnull %3) #11
  call void @llvm.lifetime.end.p0(i64 8, ptr nonnull %2) #11
  ret void
}